; ModuleID = 'source-C-CXX/0/1150.c'
source_filename = "source-C-CXX/0/1150.c"
target datalayout = "e-m:e-p270:32:32-p271:32:32-p272:64:64-i64:64-f80:128-n8:16:32:64-S128"
target triple = "x86_64-pc-linux-gnu"

@.str = private unnamed_addr constant [3 x i8] c"%d\00", align 1
@.str.1 = private unnamed_addr constant [4 x i8] c"%d\0A\00", align 1

; Function Attrs: nofree nosync nounwind readnone sspstrong uwtable
define dso_local i32 @way(i32 %0, i32 %1) local_unnamed_addr #0 {
  %3 = icmp slt i32 %1, %0
  br i1 %3, label %4, label %23

4:                                                ; preds = %2, %15
  %5 = phi i32 [ %18, %15 ], [ %1, %2 ]
  %6 = phi i32 [ %17, %15 ], [ 0, %2 ]
  %7 = phi i32 [ %16, %15 ], [ 0, %2 ]
  %8 = srem i32 %0, %5
  %9 = sdiv i32 %0, %5
  %10 = icmp eq i32 %8, 0
  br i1 %10, label %11, label %15

11:                                               ; preds = %4
  %12 = add nsw i32 %6, 1
  %13 = tail call i32 @way(i32 %9, i32 %5)
  %14 = add nsw i32 %13, %7
  br label %15

15:                                               ; preds = %4, %11
  %16 = phi i32 [ %14, %11 ], [ %7, %4 ]
  %17 = phi i32 [ %12, %11 ], [ %6, %4 ]
  %18 = add i32 %5, 1
  %19 = icmp eq i32 %18, %0
  br i1 %19, label %20, label %4, !llvm.loop !5

20:                                               ; preds = %15
  %21 = add nsw i32 %16, 1
  %22 = icmp eq i32 %17, 0
  br i1 %22, label %23, label %24

23:                                               ; preds = %2, %20
  br label %24

24:                                               ; preds = %20, %23
  %25 = phi i32 [ 1, %23 ], [ %21, %20 ]
  %26 = icmp sgt i32 %1, %0
  %27 = select i1 %26, i32 0, i32 %25
  ret i32 %27
}

; Function Attrs: argmemonly mustprogress nofree nosync nounwind willreturn
declare void @llvm.lifetime.start.p0i8(i64 immarg, i8* nocapture) #1

; Function Attrs: argmemonly mustprogress nofree nosync nounwind willreturn
declare void @llvm.lifetime.end.p0i8(i64 immarg, i8* nocapture) #1

; Function Attrs: nofree nounwind sspstrong uwtable
define dso_local i32 @main() local_unnamed_addr #2 {
  %1 = alloca i32, align 4
  %2 = alloca i32, align 4
  %3 = bitcast i32* %1 to i8*
  call void @llvm.lifetime.start.p0i8(i64 4, i8* nonnull %3) #4
  %4 = bitcast i32* %2 to i8*
  call void @llvm.lifetime.start.p0i8(i64 4, i8* nonnull %4) #4
  %5 = call i32 (i8*, ...) @__isoc99_scanf(i8* getelementptr inbounds ([3 x i8], [3 x i8]* @.str, i64 0, i64 0), i32* nonnull %1)
  %6 = load i32, i32* %1, align 4, !tbaa !7
  %7 = icmp slt i32 %6, 1
  br i1 %7, label %17, label %8

8:                                                ; preds = %0, %8
  %9 = phi i32 [ %14, %8 ], [ 1, %0 ]
  %10 = call i32 (i8*, ...) @__isoc99_scanf(i8* getelementptr inbounds ([3 x i8], [3 x i8]* @.str, i64 0, i64 0), i32* nonnull %2)
  %11 = load i32, i32* %2, align 4, !tbaa !7
  %12 = call i32 @way(i32 %11, i32 2)
  %13 = call i32 (i8*, ...) @printf(i8* nonnull dereferenceable(1) getelementptr inbounds ([4 x i8], [4 x i8]* @.str.1, i64 0, i64 0), i32 %12)
  %14 = add nuw nsw i32 %9, 1
  %15 = load i32, i32* %1, align 4, !tbaa !7
  %16 = icmp slt i32 %9, %15
  br i1 %16, label %8, label %17, !llvm.loop !11

17:                                               ; preds = %8, %0
  call void @llvm.lifetime.end.p0i8(i64 4, i8* nonnull %4) #4
  call void @llvm.lifetime.end.p0i8(i64 4, i8* nonnull %3) #4
  ret i32 0
}

; Function Attrs: nofree nounwind
declare noundef i32 @__isoc99_scanf(i8* nocapture noundef readonly, ...) local_unnamed_addr #3

; Function Attrs: nofree nounwind
declare noundef i32 @printf(i8* nocapture noundef readonly, ...) local_unnamed_addr #3


!llvm.module.flags = !{!0, !1, !2, !3}
!llvm.ident = !{!4}

!0 = !{i32 1, !"wchar_size", i32 4}
!1 = !{i32 7, !"PIC Level", i32 2}
!2 = !{i32 7, !"PIE Level", i32 2}
!3 = !{i32 7, !"uwtable", i32 1}
!4 = !{!"clang version 13.0.0"}
!5 = distinct !{!5, !6}
!6 = !{!"llvm.loop.mustprogress"}
!7 = !{!8, !8, i64 0}
!8 = !{!"int", !9, i64 0}
!9 = !{!"omnipotent char", !10, i64 0}
!10 = !{!"Simple C/C++ TBAA"}
!11 = distinct !{!11, !6}
